target datalayout = "e-m:e-p270:32:32-p271:32:32-p272:64:64-i64:64-i128:128-f80:128-n8:16:32:64-S128"
target triple = "x86_64-pc-linux-gnu"

%"class.clang::ento::CoreEngine" = type { ptr, %"class.clang::ento::ExplodedGraph", %"class.std::unique_ptr", %"class.std::unique_ptr", %"class.clang::ento::BlockCounter::Factory", %"class.std::vector.2", %"class.std::vector.7", ptr, %"class.clang::ento::DataTag::Factory" }
%"class.clang::ento::ExplodedGraph" = type { %"class.std::vector", %"class.std::vector", %"class.llvm::FoldingSet", %"class.clang::BumpVectorContext", i64, %"class.std::vector", %"class.std::vector", i32, i32 }
%"class.llvm::FoldingSet" = type { %"class.llvm::FoldingSetImpl" }
%"class.llvm::FoldingSetImpl" = type { %"class.llvm::FoldingSetBase" }
%"class.llvm::FoldingSetBase" = type { ptr, i32, i32 }
%"class.clang::BumpVectorContext" = type { %"class.llvm::PointerIntPair" }
%"class.llvm::PointerIntPair" = type { %"struct.llvm::detail::PunnedPointer" }
%"struct.llvm::detail::PunnedPointer" = type { [8 x i8] }
%"class.std::vector" = type { %"struct.std::_Vector_base" }
%"struct.std::_Vector_base" = type { %"struct.std::_Vector_base<clang::ento::ExplodedNode *, std::allocator<clang::ento::ExplodedNode *>>::_Vector_impl" }
%"struct.std::_Vector_base<clang::ento::ExplodedNode *, std::allocator<clang::ento::ExplodedNode *>>::_Vector_impl" = type { %"struct.std::_Vector_base<clang::ento::ExplodedNode *, std::allocator<clang::ento::ExplodedNode *>>::_Vector_impl_data" }
%"struct.std::_Vector_base<clang::ento::ExplodedNode *, std::allocator<clang::ento::ExplodedNode *>>::_Vector_impl_data" = type { ptr, ptr, ptr }
%"class.std::unique_ptr" = type { %"struct.std::__uniq_ptr_data" }
%"struct.std::__uniq_ptr_data" = type { %"class.std::__uniq_ptr_impl" }
%"class.std::__uniq_ptr_impl" = type { %"class.std::tuple" }
%"class.std::tuple" = type { %"struct.std::_Tuple_impl" }
%"struct.std::_Tuple_impl" = type { %"struct.std::_Head_base.1" }
%"struct.std::_Head_base.1" = type { ptr }
%"class.clang::ento::BlockCounter::Factory" = type { ptr }
%"class.std::vector.2" = type { %"struct.std::_Vector_base.3" }
%"struct.std::_Vector_base.3" = type { %"struct.std::_Vector_base<std::pair<clang::BlockEdge, const clang::ento::ExplodedNode *>, std::allocator<std::pair<clang::BlockEdge, const clang::ento::ExplodedNode *>>>::_Vector_impl" }
%"struct.std::_Vector_base<std::pair<clang::BlockEdge, const clang::ento::ExplodedNode *>, std::allocator<std::pair<clang::BlockEdge, const clang::ento::ExplodedNode *>>>::_Vector_impl" = type { %"struct.std::_Vector_base<std::pair<clang::BlockEdge, const clang::ento::ExplodedNode *>, std::allocator<std::pair<clang::BlockEdge, const clang::ento::ExplodedNode *>>>::_Vector_impl_data" }
%"struct.std::_Vector_base<std::pair<clang::BlockEdge, const clang::ento::ExplodedNode *>, std::allocator<std::pair<clang::BlockEdge, const clang::ento::ExplodedNode *>>>::_Vector_impl_data" = type { ptr, ptr, ptr }
%"class.std::vector.7" = type { %"struct.std::_Vector_base.8" }
%"struct.std::_Vector_base.8" = type { %"struct.std::_Vector_base<std::pair<const clang::CFGBlock *, const clang::ento::ExplodedNode *>, std::allocator<std::pair<const clang::CFGBlock *, const clang::ento::ExplodedNode *>>>::_Vector_impl" }
%"struct.std::_Vector_base<std::pair<const clang::CFGBlock *, const clang::ento::ExplodedNode *>, std::allocator<std::pair<const clang::CFGBlock *, const clang::ento::ExplodedNode *>>>::_Vector_impl" = type { %"struct.std::_Vector_base<std::pair<const clang::CFGBlock *, const clang::ento::ExplodedNode *>, std::allocator<std::pair<const clang::CFGBlock *, const clang::ento::ExplodedNode *>>>::_Vector_impl_data" }
%"struct.std::_Vector_base<std::pair<const clang::CFGBlock *, const clang::ento::ExplodedNode *>, std::allocator<std::pair<const clang::CFGBlock *, const clang::ento::ExplodedNode *>>>::_Vector_impl_data" = type { ptr, ptr, ptr }
%"class.clang::ento::DataTag::Factory" = type { %"class.std::vector.12" }
%"class.std::vector.12" = type { %"struct.std::_Vector_base.13" }
%"struct.std::_Vector_base.13" = type { %"struct.std::_Vector_base<std::unique_ptr<clang::ento::DataTag>, std::allocator<std::unique_ptr<clang::ento::DataTag>>>::_Vector_impl" }
%"struct.std::_Vector_base<std::unique_ptr<clang::ento::DataTag>, std::allocator<std::unique_ptr<clang::ento::DataTag>>>::_Vector_impl" = type { %"struct.std::_Vector_base<std::unique_ptr<clang::ento::DataTag>, std::allocator<std::unique_ptr<clang::ento::DataTag>>>::_Vector_impl_data" }
%"struct.std::_Vector_base<std::unique_ptr<clang::ento::DataTag>, std::allocator<std::unique_ptr<clang::ento::DataTag>>>::_Vector_impl_data" = type { ptr, ptr, ptr }
%"class.clang::ento::BlockCounter" = type { ptr }
%"class.clang::ento::WorkList" = type { ptr, %"class.clang::ento::BlockCounter" }
%"class.clang::ento::ExplodedNodeSet" = type { %"class.llvm::SmallSetVector" }
%"class.llvm::SmallSetVector" = type { %"class.llvm::SetVector" }
%"class.llvm::SetVector" = type { %"class.llvm::DenseSet", %"class.llvm::SmallVector.131" }
%"class.llvm::DenseSet" = type { %"class.llvm::detail::DenseSetImpl" }
%"class.llvm::detail::DenseSetImpl" = type { %"class.llvm::DenseMap.128" }
%"class.llvm::DenseMap.128" = type <{ ptr, i32, i32, i32, [4 x i8] }>
%"class.llvm::SmallVector.131" = type { %"class.llvm::SmallVectorImpl.132", %"struct.llvm::SmallVectorStorage.135" }
%"class.llvm::SmallVectorImpl.132" = type { %"class.llvm::SmallVectorTemplateBase.133" }
%"class.llvm::SmallVectorTemplateBase.133" = type { %"class.llvm::SmallVectorTemplateCommon.134" }
%"class.llvm::SmallVectorTemplateCommon.134" = type { %"class.llvm::SmallVectorBase" }
%"class.llvm::SmallVectorBase" = type { ptr, i32, i32 }
%"struct.llvm::SmallVectorStorage.135" = type { [32 x i8] }
%"class.clang::ento::WorkListUnit" = type <{ ptr, %"class.clang::ento::BlockCounter", ptr, i32, [4 x i8] }>

; Function Attrs: mustprogress nounwind uwtable
define linkonce_odr hidden noundef nonnull align 8 dereferenceable(8) ptr @_ZNSt10_Head_baseILm0EPN5clang4ento8WorkListELb0EE7_M_headERKS4_(ptr noundef nonnull align 8 dereferenceable(8) %0) #1 comdat align 2 {
  %2 = alloca ptr, align 8
  store ptr %0, ptr %2, align 8
  %3 = load ptr, ptr %2, align 8
  %4 = getelementptr inbounds nuw %"struct.std::_Head_base.1", ptr %3, i32 0, i32 0
  ret ptr %4
}

; Function Attrs: mustprogress nounwind uwtable
define linkonce_odr hidden noundef nonnull align 8 dereferenceable(8) ptr @_ZNSt11_Tuple_implILm0EJPN5clang4ento8WorkListESt14default_deleteIS2_EEE7_M_headERKS6_(ptr noundef nonnull align 8 dereferenceable(8) %0) #1 comdat align 2 {
  %2 = alloca ptr, align 8
  store ptr %0, ptr %2, align 8
  %3 = load ptr, ptr %2, align 8
  %4 = call noundef nonnull align 8 dereferenceable(8) ptr @_ZNSt10_Head_baseILm0EPN5clang4ento8WorkListELb0EE7_M_headERKS4_(ptr noundef nonnull align 8 dereferenceable(8) %3) #9
  ret ptr %4
}

; Function Attrs: mustprogress nounwind uwtable
define linkonce_odr noundef nonnull align 8 dereferenceable(8) ptr @_ZSt12__get_helperILm0EPN5clang4ento8WorkListEJSt14default_deleteIS2_EEERKT0_RKSt11_Tuple_implIXT_EJS6_DpT1_EE(ptr noundef nonnull align 8 dereferenceable(8) %0) #1 comdat {
  %2 = alloca ptr, align 8
  store ptr %0, ptr %2, align 8
  %3 = load ptr, ptr %2, align 8
  %4 = call noundef nonnull align 8 dereferenceable(8) ptr @_ZNSt11_Tuple_implILm0EJPN5clang4ento8WorkListESt14default_deleteIS2_EEE7_M_headERKS6_(ptr noundef nonnull align 8 dereferenceable(8) %3) #9
  ret ptr %4
}

; Function Attrs: mustprogress nounwind uwtable
define linkonce_odr noundef nonnull align 8 dereferenceable(8) ptr @_ZSt3getILm0EJPN5clang4ento8WorkListESt14default_deleteIS2_EEERKNSt13tuple_elementIXT_ESt5tupleIJDpT0_EEE4typeERKSA_(ptr noundef nonnull align 8 dereferenceable(8) %0) #1 comdat {
  %2 = alloca ptr, align 8
  store ptr %0, ptr %2, align 8
  %3 = load ptr, ptr %2, align 8
  %4 = call noundef nonnull align 8 dereferenceable(8) ptr @_ZSt12__get_helperILm0EPN5clang4ento8WorkListEJSt14default_deleteIS2_EEERKT0_RKSt11_Tuple_implIXT_EJS6_DpT1_EE(ptr noundef nonnull align 8 dereferenceable(8) %3) #9
  ret ptr %4
}

; Function Attrs: mustprogress nounwind uwtable
define linkonce_odr hidden noundef ptr @_ZNKSt15__uniq_ptr_implIN5clang4ento8WorkListESt14default_deleteIS2_EE6_M_ptrEv(ptr noundef nonnull align 8 dereferenceable(8) %0) #1 comdat align 2 {
  %2 = alloca ptr, align 8
  store ptr %0, ptr %2, align 8
  %3 = load ptr, ptr %2, align 8
  %4 = getelementptr inbounds nuw %"class.std::__uniq_ptr_impl", ptr %3, i32 0, i32 0
  %5 = call noundef nonnull align 8 dereferenceable(8) ptr @_ZSt3getILm0EJPN5clang4ento8WorkListESt14default_deleteIS2_EEERKNSt13tuple_elementIXT_ESt5tupleIJDpT0_EEE4typeERKSA_(ptr noundef nonnull align 8 dereferenceable(8) %4) #9
  %6 = load ptr, ptr %5, align 8
  ret ptr %6
}

; Function Attrs: mustprogress nounwind uwtable
define linkonce_odr hidden noundef ptr @_ZN4llvm25SmallVectorTemplateCommonIPN5clang4ento12ExplodedNodeEvE3endEv(ptr noundef nonnull align 8 dereferenceable(16) %0) #1 comdat align 2 {
  %2 = alloca ptr, align 8
  store ptr %0, ptr %2, align 8
  %3 = load ptr, ptr %2, align 8
  %4 = call noundef ptr @_ZN4llvm25SmallVectorTemplateCommonIPN5clang4ento12ExplodedNodeEvE5beginEv(ptr noundef nonnull align 8 dereferenceable(16) %3)
  %5 = call noundef i64 @_ZNK4llvm15SmallVectorBaseIjE4sizeEv(ptr noundef nonnull align 8 dereferenceable(16) %3)
  %6 = getelementptr inbounds ptr, ptr %4, i64 %5
  ret ptr %6
}

; Function Attrs: mustprogress nounwind uwtable
define linkonce_odr hidden noundef ptr @_ZN4llvm25SmallVectorTemplateCommonIPN5clang4ento12ExplodedNodeEvE5beginEv(ptr noundef nonnull align 8 dereferenceable(16) %0) #1 comdat align 2 {
  %2 = alloca ptr, align 8
  store ptr %0, ptr %2, align 8
  %3 = load ptr, ptr %2, align 8
  %4 = getelementptr inbounds nuw %"class.llvm::SmallVectorBase", ptr %3, i32 0, i32 0
  %5 = load ptr, ptr %4, align 8
  ret ptr %5
}

; Function Attrs: mustprogress nounwind uwtable
define linkonce_odr hidden void @_ZN5clang4ento12WorkListUnitC2EPNS0_12ExplodedNodeENS0_12BlockCounterE(ptr noundef nonnull align 8 dereferenceable(28) %0, ptr noundef %1, ptr %2) unnamed_addr #1 comdat align 2 {
  %4 = alloca %"class.clang::ento::BlockCounter", align 8
  %5 = alloca ptr, align 8
  %6 = alloca ptr, align 8
  %7 = getelementptr inbounds nuw %"class.clang::ento::BlockCounter", ptr %4, i32 0, i32 0
  store ptr %2, ptr %7, align 8
  store ptr %0, ptr %5, align 8
  store ptr %1, ptr %6, align 8
  %8 = load ptr, ptr %5, align 8
  %9 = getelementptr inbounds nuw %"class.clang::ento::WorkListUnit", ptr %8, i32 0, i32 0
  %10 = load ptr, ptr %6, align 8
  store ptr %10, ptr %9, align 8
  %11 = getelementptr inbounds nuw %"class.clang::ento::WorkListUnit", ptr %8, i32 0, i32 1
  call void @llvm.memcpy.p0.p0.i64(ptr align 8 %11, ptr align 8 %4, i64 8, i1 false)
  %12 = getelementptr inbounds nuw %"class.clang::ento::WorkListUnit", ptr %8, i32 0, i32 2
  store ptr null, ptr %12, align 8
  %13 = getelementptr inbounds nuw %"class.clang::ento::WorkListUnit", ptr %8, i32 0, i32 3
  store i32 0, ptr %13, align 8
  ret void
}

; Function Attrs: mustprogress nounwind uwtable
define linkonce_odr hidden noundef ptr @_ZNKSt10unique_ptrIN5clang4ento8WorkListESt14default_deleteIS2_EE3getEv(ptr noundef nonnull align 8 dereferenceable(8) %0) #1 comdat align 2 {
  %2 = alloca ptr, align 8
  store ptr %0, ptr %2, align 8
  %3 = load ptr, ptr %2, align 8
  %4 = getelementptr inbounds nuw %"class.std::unique_ptr", ptr %3, i32 0, i32 0
  %5 = call noundef ptr @_ZNKSt15__uniq_ptr_implIN5clang4ento8WorkListESt14default_deleteIS2_EE6_M_ptrEv(ptr noundef nonnull align 8 dereferenceable(8) %4) #9
  ret ptr %5
}

; Function Attrs: mustprogress nounwind uwtable
define linkonce_odr hidden noundef ptr @_ZN4llvm9SetVectorIPN5clang4ento12ExplodedNodeENS_11SmallVectorIS4_Lj4EEENS_8DenseSetIS4_NS_12DenseMapInfoIS4_vEEEELj4EE3endEv(ptr noundef nonnull align 8 dereferenceable(72) %0) #1 comdat align 2 {
  %2 = alloca ptr, align 8
  store ptr %0, ptr %2, align 8
  %3 = load ptr, ptr %2, align 8
  %4 = getelementptr inbounds nuw %"class.llvm::SetVector", ptr %3, i32 0, i32 1
  %5 = call noundef ptr @_ZN4llvm25SmallVectorTemplateCommonIPN5clang4ento12ExplodedNodeEvE3endEv(ptr noundef nonnull align 8 dereferenceable(16) %4)
  ret ptr %5
}

; Function Attrs: mustprogress nounwind uwtable
define linkonce_odr hidden noundef ptr @_ZN4llvm9SetVectorIPN5clang4ento12ExplodedNodeENS_11SmallVectorIS4_Lj4EEENS_8DenseSetIS4_NS_12DenseMapInfoIS4_vEEEELj4EE5beginEv(ptr noundef nonnull align 8 dereferenceable(72) %0) #1 comdat align 2 {
  %2 = alloca ptr, align 8
  store ptr %0, ptr %2, align 8
  %3 = load ptr, ptr %2, align 8
  %4 = getelementptr inbounds nuw %"class.llvm::SetVector", ptr %3, i32 0, i32 1
  %5 = call noundef ptr @_ZN4llvm25SmallVectorTemplateCommonIPN5clang4ento12ExplodedNodeEvE5beginEv(ptr noundef nonnull align 8 dereferenceable(16) %4)
  ret ptr %5
}

; Function Attrs: mustprogress nounwind uwtable
define linkonce_odr hidden void @_ZN5clang4ento8WorkList7enqueueEPNS0_12ExplodedNodeE(ptr noundef nonnull align 8 dereferenceable(16) %0, ptr noundef %1) #1 comdat align 2 {
  %3 = alloca ptr, align 8
  %4 = alloca ptr, align 8
  %5 = alloca %"class.clang::ento::WorkListUnit", align 8
  %6 = alloca %"class.clang::ento::BlockCounter", align 8
  store ptr %0, ptr %3, align 8
  store ptr %1, ptr %4, align 8
  %7 = load ptr, ptr %3, align 8
  %8 = load ptr, ptr %4, align 8
  %9 = getelementptr inbounds nuw %"class.clang::ento::WorkList", ptr %7, i32 0, i32 1
  call void @llvm.memcpy.p0.p0.i64(ptr align 8 %6, ptr align 8 %9, i64 8, i1 false)
  %10 = getelementptr inbounds nuw %"class.clang::ento::BlockCounter", ptr %6, i32 0, i32 0
  %11 = load ptr, ptr %10, align 8
  call void @_ZN5clang4ento12WorkListUnitC2EPNS0_12ExplodedNodeENS0_12BlockCounterE(ptr noundef nonnull align 8 dereferenceable(28) %5, ptr noundef %8, ptr %11)
  %12 = load ptr, ptr %7, align 8
  %13 = getelementptr inbounds ptr, ptr %12, i64 3
  %14 = load ptr, ptr %13, align 8
  call void %14(ptr noundef nonnull align 8 dereferenceable(16) %7, ptr noundef nonnull align 8 dereferenceable(28) %5)
  ret void
}

; Function Attrs: mustprogress nounwind uwtable
define linkonce_odr hidden noundef ptr @_ZNKSt10unique_ptrIN5clang4ento8WorkListESt14default_deleteIS2_EEptEv(ptr noundef nonnull align 8 dereferenceable(8) %0) #1 comdat align 2 {
  %2 = alloca ptr, align 8
  store ptr %0, ptr %2, align 8
  %3 = load ptr, ptr %2, align 8
  %4 = call noundef ptr @_ZNKSt10unique_ptrIN5clang4ento8WorkListESt14default_deleteIS2_EE3getEv(ptr noundef nonnull align 8 dereferenceable(8) %3) #9
  ret ptr %4
}

; Function Attrs: mustprogress nounwind uwtable
define linkonce_odr hidden noundef ptr @_ZN5clang4ento15ExplodedNodeSet3endEv(ptr noundef nonnull align 8 dereferenceable(72) %0) #1 comdat align 2 {
  %2 = alloca ptr, align 8
  store ptr %0, ptr %2, align 8
  %3 = load ptr, ptr %2, align 8
  %4 = getelementptr inbounds nuw %"class.clang::ento::ExplodedNodeSet", ptr %3, i32 0, i32 0
  %5 = call noundef ptr @_ZN4llvm9SetVectorIPN5clang4ento12ExplodedNodeENS_11SmallVectorIS4_Lj4EEENS_8DenseSetIS4_NS_12DenseMapInfoIS4_vEEEELj4EE3endEv(ptr noundef nonnull align 8 dereferenceable(72) %4)
  ret ptr %5
}

; Function Attrs: mustprogress nounwind uwtable
define linkonce_odr hidden noundef ptr @_ZN5clang4ento15ExplodedNodeSet5beginEv(ptr noundef nonnull align 8 dereferenceable(72) %0) #1 comdat align 2 {
  %2 = alloca ptr, align 8
  store ptr %0, ptr %2, align 8
  %3 = load ptr, ptr %2, align 8
  %4 = getelementptr inbounds nuw %"class.clang::ento::ExplodedNodeSet", ptr %3, i32 0, i32 0
  %5 = call noundef ptr @_ZN4llvm9SetVectorIPN5clang4ento12ExplodedNodeENS_11SmallVectorIS4_Lj4EEENS_8DenseSetIS4_NS_12DenseMapInfoIS4_vEEEELj4EE5beginEv(ptr noundef nonnull align 8 dereferenceable(72) %4)
  ret ptr %5
}

; Function Attrs: mustprogress nounwind uwtable
define dso_local void @_ZN5clang4ento10CoreEngine7enqueueERNS0_15ExplodedNodeSetE(ptr noundef nonnull align 8 dereferenceable(248) %0, ptr noundef nonnull align 8 dereferenceable(72) %1) #1 align 2 {
  %3 = alloca ptr, align 8
  %4 = alloca ptr, align 8
  %5 = alloca ptr, align 8
  %6 = alloca ptr, align 8
  %7 = alloca ptr, align 8
  %8 = alloca ptr, align 8
  store ptr %0, ptr %3, align 8
  store ptr %1, ptr %4, align 8
  %9 = load ptr, ptr %3, align 8
  %10 = load ptr, ptr %4, align 8
  store ptr %10, ptr %5, align 8
  %11 = load ptr, ptr %5, align 8
  %12 = call noundef ptr @_ZN5clang4ento15ExplodedNodeSet5beginEv(ptr noundef nonnull align 8 dereferenceable(72) %11)
  store ptr %12, ptr %6, align 8
  %13 = load ptr, ptr %5, align 8
  %14 = call noundef ptr @_ZN5clang4ento15ExplodedNodeSet3endEv(ptr noundef nonnull align 8 dereferenceable(72) %13)
  store ptr %14, ptr %7, align 8
  br label %15

15:                                               ; preds = %25, %2
  %16 = load ptr, ptr %6, align 8
  %17 = load ptr, ptr %7, align 8
  %18 = icmp ne ptr %16, %17
  br i1 %18, label %19, label %28

19:                                               ; preds = %15
  %20 = load ptr, ptr %6, align 8
  %21 = load ptr, ptr %20, align 8
  store ptr %21, ptr %8, align 8
  %22 = getelementptr inbounds nuw %"class.clang::ento::CoreEngine", ptr %9, i32 0, i32 2
  %23 = call noundef ptr @_ZNKSt10unique_ptrIN5clang4ento8WorkListESt14default_deleteIS2_EEptEv(ptr noundef nonnull align 8 dereferenceable(8) %22) #9
  %24 = load ptr, ptr %8, align 8
  call void @_ZN5clang4ento8WorkList7enqueueEPNS0_12ExplodedNodeE(ptr noundef nonnull align 8 dereferenceable(16) %23, ptr noundef %24)
  br label %25

25:                                               ; preds = %19
  %26 = load ptr, ptr %6, align 8
  %27 = getelementptr inbounds ptr, ptr %26, i32 1
  store ptr %27, ptr %6, align 8
  br label %15

28:                                               ; preds = %15
  ret void
}