; Function Attrs: mustprogress nounwind uwtable
define dso_local void @_ZN5clang4ento10CoreEngine7enqueueERNS0_15ExplodedNodeSetE(ptr noundef nonnull readonly align 8 captures(none) dereferenceable(248) %0, ptr noundef nonnull align 8 dereferenceable(72) %1) local_unnamed_addr #0 align 2 {
  %3 = alloca %"class.clang::ento::WorkListUnit", align 8
  %4 = getelementptr inbounds nuw i8, ptr %1, i64 24
  %5 = load ptr, ptr %4, align 8
  %6 = tail call noundef i64 @_ZNK4llvm15SmallVectorBaseIjE4sizeEv(ptr noundef nonnull align 8 dereferenceable(16) %4) #16
  %7 = getelementptr inbounds ptr, ptr %5, i64 %6
  %.not9 = icmp eq i64 %6, 0
  br i1 %.not9, label %._crit_edge, label %.lr.ph

.lr.ph:                                           ; preds = %2
  %8 = getelementptr inbounds nuw i8, ptr %0, i64 144
  %9 = getelementptr inbounds nuw i8, ptr %3, i64 8
  %10 = getelementptr inbounds nuw i8, ptr %3, i64 16
  %11 = getelementptr inbounds nuw i8, ptr %3, i64 24
  br label %12

12:                                               ; preds = %.lr.ph, %12
  %.010 = phi ptr [ %5, %.lr.ph ], [ %19, %12 ]
  %13 = load ptr, ptr %.010, align 8
  %14 = load ptr, ptr %8, align 8
  call void @llvm.lifetime.start.p0(i64 32, ptr nonnull %3)
  %15 = getelementptr inbounds nuw i8, ptr %14, i64 8
  %.sroa.0.0.copyload.i = load ptr, ptr %15, align 8
  store ptr %13, ptr %3, align 8
  store ptr %.sroa.0.0.copyload.i, ptr %9, align 8
  store ptr null, ptr %10, align 8
  store i32 0, ptr %11, align 8
  %16 = load ptr, ptr %14, align 8
  %17 = getelementptr inbounds nuw i8, ptr %16, i64 24
  %18 = load ptr, ptr %17, align 8
  call void %18(ptr noundef nonnull align 8 dereferenceable(16) %14, ptr noundef nonnull align 8 dereferenceable(28) %3) #16
  call void @llvm.lifetime.end.p0(i64 32, ptr nonnull %3)
  %19 = getelementptr inbounds nuw i8, ptr %.010, i64 8
  %.not = icmp eq ptr %19, %7
  br i1 %.not, label %._crit_edge, label %12

._crit_edge:                                      ; preds = %12, %2
  ret void
}